target datalayout = "e-m:e-p270:32:32-p271:32:32-p272:64:64-i64:64-i128:128-f80:128-n8:16:32:64-S128"
target triple = "x86_64-pc-linux-gnu"

%struct.nghttp2_stream = type { i32, %struct.nghttp2_pq_entry, i64, i64, i64, i64, ptr, ptr, ptr, i64, i32, i32, i32, i32, i32, i32, i32, i16, i32, i8, i8, i8, i8, i8, i8 }
%struct.nghttp2_pq_entry = type { i64 }

@.str = private unnamed_addr constant [56 x i8] c"(stream->flags & NGHTTP2_STREAM_FLAG_DEFERRED_ALL) == 0\00", align 1
@.str.1 = private unnamed_addr constant [114 x i8] c"generated/home/dtcxzyw/WorkSpace/Projects/compilers/llvm-opt-benchmark/bench/nghttp2/nghttp2/lib/nghttp2_stream.c\00", align 1
@__PRETTY_FUNCTION__.nghttp2_stream_attach_item = private unnamed_addr constant [75 x i8] c"void nghttp2_stream_attach_item(nghttp2_stream *, nghttp2_outbound_item *)\00", align 1
@.str.2 = private unnamed_addr constant [21 x i8] c"stream->item == NULL\00", align 1

; Function Attrs: nounwind uwtable
define hidden void @nghttp2_stream_attach_item(ptr noundef %0, ptr noundef %1) #0 {
  %3 = alloca ptr, align 8
  %4 = alloca ptr, align 8
  store ptr %0, ptr %3, align 8, !tbaa !3
  store ptr %1, ptr %4, align 8, !tbaa !41
  %5 = load ptr, ptr %3, align 8, !tbaa !3
  %6 = getelementptr inbounds nuw %struct.nghttp2_stream, ptr %5, i32 0, i32 19
  %7 = load i8, ptr %6, align 4, !tbaa !18
  %8 = zext i8 %7 to i32
  %9 = and i32 %8, 12
  %10 = icmp eq i32 %9, 0
  br i1 %10, label %11, label %12

11:                                               ; preds = %2
  br label %13

12:                                               ; preds = %2
  call void @__assert_fail(ptr noundef @.str, ptr noundef @.str.1, i32 noundef 76, ptr noundef @__PRETTY_FUNCTION__.nghttp2_stream_attach_item) #3
  unreachable

13:                                               ; preds = %11
  %14 = load ptr, ptr %3, align 8, !tbaa !3
  %15 = getelementptr inbounds nuw %struct.nghttp2_stream, ptr %14, i32 0, i32 8
  %16 = load ptr, ptr %15, align 8, !tbaa !22
  %17 = icmp eq ptr %16, null
  br i1 %17, label %18, label %19

18:                                               ; preds = %13
  br label %20

19:                                               ; preds = %13
  call void @__assert_fail(ptr noundef @.str.2, ptr noundef @.str.1, i32 noundef 77, ptr noundef @__PRETTY_FUNCTION__.nghttp2_stream_attach_item) #3
  unreachable

20:                                               ; preds = %18
  br label %21

21:                                               ; preds = %20
  br label %22

22:                                               ; preds = %21
  %23 = load ptr, ptr %4, align 8, !tbaa !41
  %24 = load ptr, ptr %3, align 8, !tbaa !3
  %25 = getelementptr inbounds nuw %struct.nghttp2_stream, ptr %24, i32 0, i32 8
  store ptr %23, ptr %25, align 8, !tbaa !22
  ret void
}