; Function Attrs: nounwind uwtable
define hidden void @nghttp2_stream_attach_item(ptr noundef captures(none) %0, ptr noundef %1) local_unnamed_addr #3 {
  %3 = getelementptr inbounds nuw i8, ptr %0, i64 116
  %4 = load i8, ptr %3, align 4, !tbaa !14
  %5 = and i8 %4, 12
  %6 = icmp eq i8 %5, 0
  br i1 %6, label %8, label %7

7:                                                ; preds = %2
  tail call void @__assert_fail(ptr noundef nonnull @.str, ptr noundef nonnull @.str.1, i32 noundef 76, ptr noundef nonnull @__PRETTY_FUNCTION__.nghttp2_stream_attach_item) #7
  unreachable

8:                                                ; preds = %2
  %9 = getelementptr inbounds nuw i8, ptr %0, i64 64
  %10 = load ptr, ptr %9, align 8, !tbaa !18
  %11 = icmp eq ptr %10, null
  br i1 %11, label %13, label %12

12:                                               ; preds = %8
  tail call void @__assert_fail(ptr noundef nonnull @.str.2, ptr noundef nonnull @.str.1, i32 noundef 77, ptr noundef nonnull @__PRETTY_FUNCTION__.nghttp2_stream_attach_item) #7
  unreachable

13:                                               ; preds = %8
  store ptr %1, ptr %9, align 8, !tbaa !18
  ret void
}